; Function Attrs: nounwind uwtable
define ptr @l_Lean_Json_getObjValAs_x3f___at___private_Lean_Setup_0__Lean_fromJsonModuleSetup____x40_Lean_Setup___hyg_1209____spec__1___boxed(ptr noundef %0, ptr noundef %1) local_unnamed_addr #0 {
  %3 = tail call ptr @l_Lean_Json_getObjValD(ptr noundef %0, ptr noundef %1) #6
  %4 = tail call ptr @l_Array_fromJson_x3f___at___private_Lean_Setup_0__Lean_fromJsonModuleSetup____x40_Lean_Setup___hyg_1209____spec__2(ptr noundef %3)
  %5 = ptrtoint ptr %1 to i64
  %6 = and i64 %5, 1
  %.not = icmp eq i64 %6, 0
  br i1 %.not, label %7, label %lean_dec.exit

7:                                                ; preds = %2
  %8 = load i32, ptr %1, align 4, !tbaa !8
  %9 = icmp sgt i32 %8, 1
  br i1 %9, label %10, label %12, !prof !11

10:                                               ; preds = %7
  %11 = add nsw i32 %8, -1
  store i32 %11, ptr %1, align 4, !tbaa !8
  br label %lean_dec.exit

12:                                               ; preds = %7
  %.not.i = icmp eq i32 %8, 0
  br i1 %.not.i, label %lean_dec.exit, label %13

13:                                               ; preds = %12
  tail call void @lean_dec_ref_cold(ptr noundef nonnull %1) #6
  br label %lean_dec.exit

lean_dec.exit:                                    ; preds = %13, %12, %10, %2
  ret ptr %4
}